target datalayout = "e-m:e-p270:32:32-p271:32:32-p272:64:64-i64:64-i128:128-f80:128-n8:16:32:64-S128"
target triple = "x86_64-pc-linux-gnu"

; Function Attrs: mustprogress nounwind uwtable
define ptr @u_skipWhitespace(ptr noundef %0) #0 {
  %2 = alloca ptr, align 8
  store ptr %0, ptr %2, align 8, !tbaa !3
  br label %3

3:                                                ; preds = %25, %1
  %4 = load ptr, ptr %2, align 8, !tbaa !3
  %5 = load i8, ptr %4, align 1, !tbaa !8
  %6 = sext i8 %5 to i32
  %7 = icmp eq i32 %6, 32
  br i1 %7, label %23, label %8

8:                                                ; preds = %3
  %9 = load ptr, ptr %2, align 8, !tbaa !3
  %10 = load i8, ptr %9, align 1, !tbaa !8
  %11 = sext i8 %10 to i32
  %12 = icmp eq i32 %11, 9
  br i1 %12, label %23, label %13

13:                                               ; preds = %8
  %14 = load ptr, ptr %2, align 8, !tbaa !3
  %15 = load i8, ptr %14, align 1, !tbaa !8
  %16 = sext i8 %15 to i32
  %17 = icmp eq i32 %16, 13
  br i1 %17, label %23, label %18

18:                                               ; preds = %13
  %19 = load ptr, ptr %2, align 8, !tbaa !3
  %20 = load i8, ptr %19, align 1, !tbaa !8
  %21 = sext i8 %20 to i32
  %22 = icmp eq i32 %21, 10
  br label %23

23:                                               ; preds = %18, %13, %8, %3
  %24 = phi i1 [ true, %13 ], [ true, %8 ], [ true, %3 ], [ %22, %18 ]
  br i1 %24, label %25, label %28

25:                                               ; preds = %23
  %26 = load ptr, ptr %2, align 8, !tbaa !3
  %27 = getelementptr inbounds nuw i8, ptr %26, i32 1
  store ptr %27, ptr %2, align 8, !tbaa !3
  br label %3, !llvm.loop !9

28:                                               ; preds = %23
  %29 = load ptr, ptr %2, align 8, !tbaa !3
  ret ptr %29
}