; Function Attrs: mustprogress nofree norecurse nosync nounwind willreturn memory(argmem: read) uwtable
define noundef ptr @u_skipWhitespace(ptr noundef readonly %0) local_unnamed_addr #0 {
  br label %2

2:                                                ; preds = %.critedge, %1
  %.0 = phi ptr [ %0, %1 ], [ %4, %.critedge ]
  %3 = load i8, ptr %.0, align 1, !tbaa !3
  switch i8 %3, label %5 [
    i8 32, label %.critedge
    i8 9, label %.critedge
    i8 13, label %.critedge
    i8 10, label %.critedge
  ]

.critedge:                                        ; preds = %2, %2, %2, %2
  %4 = getelementptr inbounds nuw i8, ptr %.0, i64 1
  br label %2, !llvm.loop !6

5:                                                ; preds = %2
  ret ptr %.0
}